; Function Attrs: mustprogress nounwind uwtable
define hidden noundef nonnull ptr @_ZN15java_lang_Class16as_external_nameEP7oopDesc(ptr noundef nonnull %0) local_unnamed_addr #0 align 2 {
  %2 = load i32, ptr @_ZN15java_lang_Class13_klass_offsetE, align 4
  %3 = tail call noundef ptr @_ZNK7oopDesc14metadata_fieldEi(ptr noundef nonnull align 8 dereferenceable(16) %0, i32 noundef %2) #19
  %4 = icmp eq ptr %3, null
  br i1 %4, label %5, label %14

5:                                                ; preds = %1
  %6 = load i32, ptr @_ZN15java_lang_Class19_array_klass_offsetE, align 4
  %7 = tail call noundef ptr @_ZNK7oopDesc14metadata_fieldEi(ptr noundef nonnull align 8 dereferenceable(16) %0, i32 noundef %6) #19
  %.not.i = icmp eq ptr %7, null
  br i1 %.not.i, label %_ZN15java_lang_Class14primitive_typeEP7oopDesc.exit, label %8

8:                                                ; preds = %5
  %9 = getelementptr inbounds i8, ptr %7, i64 8
  %10 = load i32, ptr %9, align 8
  %11 = lshr i32 %10, 8
  %12 = trunc i32 %11 to i8
  br label %_ZN15java_lang_Class14primitive_typeEP7oopDesc.exit

_ZN15java_lang_Class14primitive_typeEP7oopDesc.exit: ; preds = %5, %8
  %.0.i = phi i8 [ %12, %8 ], [ 14, %5 ]
  %13 = tail call noundef ptr @_Z9type2name9BasicType(i8 noundef zeroext %.0.i) #19
  br label %18

14:                                               ; preds = %1
  %15 = load i32, ptr @_ZN15java_lang_Class13_klass_offsetE, align 4
  %16 = tail call noundef ptr @_ZNK7oopDesc14metadata_fieldEi(ptr noundef nonnull align 8 dereferenceable(16) %0, i32 noundef %15) #19
  %17 = tail call noundef ptr @_ZNK5Klass13external_nameEv(ptr noundef nonnull align 8 dereferenceable(196) %16) #19
  br label %18

18:                                               ; preds = %14, %_ZN15java_lang_Class14primitive_typeEP7oopDesc.exit
  %.0 = phi ptr [ %13, %_ZN15java_lang_Class14primitive_typeEP7oopDesc.exit ], [ %17, %14 ]
  %19 = icmp eq ptr %.0, null
  %spec.store.select = select i1 %19, ptr @.str.23, ptr %.0
  ret ptr %spec.store.select
}